; Function Attrs: mustprogress uwtable
define internal void @_ZNK6google8protobuf8compiler3cpp12_GLOBAL__N_115SingularMessage27GenerateMessageClearingCodeEPNS0_2io7PrinterE(ptr nocapture noundef nonnull readonly align 8 dereferenceable(106) %this, ptr noundef %p) unnamed_addr #3 align 2 personality ptr @__gxx_personality_v0 {
entry:
  %has_hasbit_ = getelementptr inbounds i8, ptr %this, i64 105
  %0 = load i8, ptr %has_hasbit_, align 1
  %1 = and i8 %0, 1
  %tobool.not = icmp eq i8 %1, 0
  br i1 %tobool.not, label %if.then, label %if.else

if.then:                                          ; preds = %entry
  tail call void @_ZN6google8protobuf2io7Printer4EmitEN4absl12lts_202308024SpanIKNS2_3SubEEESt17basic_string_viewIcSt11char_traitsIcEENS2_14SourceLocationE(ptr noundef nonnull align 8 dereferenceable(256) %p, ptr null, i64 0, i64 93, ptr nonnull @.str.49)
  br label %if.end

if.else:                                          ; preds = %entry
  tail call void @_ZN6google8protobuf2io7Printer4EmitEN4absl12lts_202308024SpanIKNS2_3SubEEESt17basic_string_viewIcSt11char_traitsIcEENS2_14SourceLocationE(ptr noundef nonnull align 8 dereferenceable(256) %p, ptr null, i64 0, i64 48, ptr nonnull @.str.51)
  br label %if.end

if.end:                                           ; preds = %if.else, %if.then
  ret void
}